; Function Attrs: mustprogress uwtable
define hidden void @_ZN4cvc58internal11NodeManager12mkGroundTermERKNS0_8TypeNodeE(ptr noalias sret(%"class.cvc5::internal::NodeTemplate") align 8 %agg.result, ptr nocapture noundef nonnull readnone align 8 dereferenceable(3360) %this, ptr nocapture noundef nonnull readonly align 8 dereferenceable(8) %tn) local_unnamed_addr #3 align 2 personality ptr @__gxx_personality_v0 {
entry:
  %agg.tmp = alloca %"class.cvc5::internal::TypeNode", align 8
  %0 = load ptr, ptr %tn, align 8
  store ptr %0, ptr %agg.tmp, align 8
  %bf.load.i.i = load i64, ptr %0, align 8
  %bf.lshr.i.i = lshr i64 %bf.load.i.i, 40
  %1 = trunc i64 %bf.lshr.i.i to i32
  %bf.cast.i.i = and i32 %1, 1048575
  %cmp.i.i = icmp ult i32 %bf.cast.i.i, 1048574
  br i1 %cmp.i.i, label %if.then.i.i, label %if.else.i.i

if.then.i.i:                                      ; preds = %entry
  %bf.value.i.i = add i64 %bf.load.i.i, 1099511627776
  %bf.shl.i.i = and i64 %bf.value.i.i, 1152920405095219200
  %bf.clear7.i.i = and i64 %bf.load.i.i, -1152920405095219201
  %bf.set.i.i = or disjoint i64 %bf.shl.i.i, %bf.clear7.i.i
  store i64 %bf.set.i.i, ptr %0, align 8
  br label %_ZN4cvc58internal8TypeNodeC2ERKS1_.exit

if.else.i.i:                                      ; preds = %entry
  %cmp12.i.i = icmp eq i32 %bf.cast.i.i, 1048574
  br i1 %cmp12.i.i, label %if.then13.i.i, label %_ZN4cvc58internal8TypeNodeC2ERKS1_.exit

if.then13.i.i:                                    ; preds = %if.else.i.i
  %bf.set23.i.i = or i64 %bf.load.i.i, 1152920405095219200
  store i64 %bf.set23.i.i, ptr %0, align 8
  tail call void @_ZN4cvc58internal4expr9NodeValue20markRefCountMaxedOutEv(ptr noundef nonnull align 8 dereferenceable(16) %0)
  br label %_ZN4cvc58internal8TypeNodeC2ERKS1_.exit

_ZN4cvc58internal8TypeNodeC2ERKS1_.exit:          ; preds = %if.then.i.i, %if.else.i.i, %if.then13.i.i
  invoke void @_ZN4cvc58internal4kind12mkGroundTermENS0_8TypeNodeE(ptr sret(%"class.cvc5::internal::NodeTemplate") align 8 %agg.result, ptr noundef nonnull %agg.tmp)
          to label %invoke.cont unwind label %lpad

invoke.cont:                                      ; preds = %_ZN4cvc58internal8TypeNodeC2ERKS1_.exit
  %2 = load ptr, ptr %agg.tmp, align 8
  %bf.load.i.i1 = load i64, ptr %2, align 8
  %3 = and i64 %bf.load.i.i1, 1152920405095219200
  %cmp.not.i.i = icmp eq i64 %3, 1152920405095219200
  br i1 %cmp.not.i.i, label %_ZN4cvc58internal8TypeNodeD2Ev.exit, label %if.then.i.i2

if.then.i.i2:                                     ; preds = %invoke.cont
  %bf.value.i.i3 = add i64 %bf.load.i.i1, 1152920405095219200
  %bf.shl.i.i4 = and i64 %bf.value.i.i3, 1152920405095219200
  %bf.clear7.i.i5 = and i64 %bf.load.i.i1, -1152920405095219201
  %bf.set.i.i6 = or disjoint i64 %bf.shl.i.i4, %bf.clear7.i.i5
  store i64 %bf.set.i.i6, ptr %2, align 8
  %cmp12.i.i7 = icmp eq i64 %bf.shl.i.i4, 0
  br i1 %cmp12.i.i7, label %if.then13.i.i8, label %_ZN4cvc58internal8TypeNodeD2Ev.exit

if.then13.i.i8:                                   ; preds = %if.then.i.i2
  invoke void @_ZN4cvc58internal4expr9NodeValue15markForDeletionEv(ptr noundef nonnull align 8 dereferenceable(16) %2)
          to label %_ZN4cvc58internal8TypeNodeD2Ev.exit unwind label %terminate.lpad.i

terminate.lpad.i:                                 ; preds = %if.then13.i.i8
  %4 = landingpad { ptr, i32 }
          catch ptr null
  %5 = extractvalue { ptr, i32 } %4, 0
  call void @__clang_call_terminate(ptr %5) #28
  unreachable

_ZN4cvc58internal8TypeNodeD2Ev.exit:              ; preds = %invoke.cont, %if.then.i.i2, %if.then13.i.i8
  ret void

lpad:                                             ; preds = %_ZN4cvc58internal8TypeNodeC2ERKS1_.exit
  %6 = landingpad { ptr, i32 }
          cleanup
  call void @_ZN4cvc58internal8TypeNodeD2Ev(ptr noundef nonnull align 8 dereferenceable(8) %agg.tmp) #7
  resume { ptr, i32 } %6
}